target datalayout = "e-m:e-p270:32:32-p271:32:32-p272:64:64-i64:64-i128:128-f80:128-n8:16:32:64-S128"
target triple = "x86_64-pc-linux-gnu"

%struct.anon = type { ptr, ptr, ptr }
%struct.GL_ShaderContext = type { ptr, ptr, ptr, ptr, ptr, ptr, ptr, ptr, ptr, ptr, ptr, ptr, ptr, ptr, ptr, ptr, i8, [11 x %struct.GL_ShaderData], [11 x ptr] }
%struct.GL_ShaderData = type { i32, i32, i32 }

@.str.28 = private unnamed_addr constant [1 x i8] zeroinitializer, align 1
@.str.29 = private unnamed_addr constant [90 x i8] c"#define sampler2D sampler2DRect\0A#define texture2D texture2DRect\0A#define UVCoordScale 0.5\0A\00", align 1
@.str.30 = private unnamed_addr constant [26 x i8] c"#define UVCoordScale 1.0\0A\00", align 1
@.str.31 = private unnamed_addr constant [6 x i8] c"tex%d\00", align 1

; Function Attrs: nounwind uwtable
define internal zeroext i1 @CompileShaderProgram(ptr noundef %0, i32 noundef %1, ptr noundef %2) #0 {
  %4 = alloca i1, align 1
  %5 = alloca ptr, align 8
  %6 = alloca i32, align 4
  %7 = alloca ptr, align 8
  %8 = alloca i32, align 4
  %9 = alloca ptr, align 8
  %10 = alloca ptr, align 8
  %11 = alloca ptr, align 8
  %12 = alloca i32, align 4
  %13 = alloca i32, align 4
  %14 = alloca i32, align 4
  %15 = alloca [10 x i8], align 1
  store ptr %0, ptr %5, align 8
  store i32 %1, ptr %6, align 4
  store ptr %2, ptr %7, align 8
  call void @llvm.lifetime.start.p0(i64 4, ptr %8) #4
  store i32 4, ptr %8, align 4
  call void @llvm.lifetime.start.p0(i64 8, ptr %9) #4
  store ptr @.str.28, ptr %9, align 8
  call void @llvm.lifetime.start.p0(i64 8, ptr %10) #4
  store ptr @.str.28, ptr %10, align 8
  call void @llvm.lifetime.start.p0(i64 8, ptr %11) #4
  store ptr @.str.28, ptr %11, align 8
  call void @llvm.lifetime.start.p0(i64 4, ptr %12) #4
  call void @llvm.lifetime.start.p0(i64 4, ptr %13) #4
  %16 = load i32, ptr %6, align 4
  %17 = icmp eq i32 %16, 0
  br i1 %17, label %18, label %19

18:                                               ; preds = %3
  store i1 true, ptr %4, align 1
  store i32 1, ptr %14, align 4
  br label %155

19:                                               ; preds = %3
  %20 = load ptr, ptr %5, align 8
  %21 = getelementptr inbounds nuw %struct.GL_ShaderContext, ptr %20, i32 0, i32 0
  %22 = load ptr, ptr %21, align 8
  %23 = call i32 %22()
  %24 = load ptr, ptr %5, align 8
  %25 = getelementptr inbounds nuw %struct.GL_ShaderContext, ptr %24, i32 0, i32 16
  %26 = load i8, ptr %25, align 8, !range !3, !noundef !4
  %27 = trunc i8 %26 to i1
  br i1 %27, label %28, label %29

28:                                               ; preds = %19
  store ptr @.str.29, ptr %10, align 8
  br label %30

29:                                               ; preds = %19
  store ptr @.str.30, ptr %10, align 8
  br label %30

30:                                               ; preds = %29, %28
  %31 = load i32, ptr %6, align 4
  %32 = sext i32 %31 to i64
  %33 = getelementptr inbounds [11 x %struct.anon], ptr @shader_source, i64 0, i64 %32
  %34 = getelementptr inbounds nuw %struct.anon, ptr %33, i32 0, i32 2
  %35 = load ptr, ptr %34, align 8
  %36 = icmp ne ptr %35, null
  br i1 %36, label %37, label %43

37:                                               ; preds = %30
  %38 = load i32, ptr %6, align 4
  %39 = sext i32 %38 to i64
  %40 = getelementptr inbounds [11 x %struct.anon], ptr @shader_source, i64 0, i64 %39
  %41 = getelementptr inbounds nuw %struct.anon, ptr %40, i32 0, i32 2
  %42 = load ptr, ptr %41, align 8
  store ptr %42, ptr %11, align 8
  br label %43

43:                                               ; preds = %37, %30
  %44 = load ptr, ptr %5, align 8
  %45 = getelementptr inbounds nuw %struct.GL_ShaderContext, ptr %44, i32 0, i32 3
  %46 = load ptr, ptr %45, align 8
  %47 = call i32 %46()
  %48 = load ptr, ptr %7, align 8
  %49 = getelementptr inbounds nuw %struct.GL_ShaderData, ptr %48, i32 0, i32 0
  store i32 %47, ptr %49, align 4
  %50 = load ptr, ptr %5, align 8
  %51 = getelementptr inbounds nuw %struct.GL_ShaderContext, ptr %50, i32 0, i32 4
  %52 = load ptr, ptr %51, align 8
  %53 = call i32 %52(i32 noundef 35633)
  %54 = load ptr, ptr %7, align 8
  %55 = getelementptr inbounds nuw %struct.GL_ShaderData, ptr %54, i32 0, i32 1
  store i32 %53, ptr %55, align 4
  %56 = load ptr, ptr %5, align 8
  %57 = load ptr, ptr %7, align 8
  %58 = getelementptr inbounds nuw %struct.GL_ShaderData, ptr %57, i32 0, i32 1
  %59 = load i32, ptr %58, align 4
  %60 = load ptr, ptr %9, align 8
  %61 = load i32, ptr %6, align 4
  %62 = sext i32 %61 to i64
  %63 = getelementptr inbounds [11 x %struct.anon], ptr @shader_source, i64 0, i64 %62
  %64 = getelementptr inbounds nuw %struct.anon, ptr %63, i32 0, i32 0
  %65 = load ptr, ptr %64, align 8
  %66 = call zeroext i1 @CompileShader(ptr noundef %56, i32 noundef %59, ptr noundef @.str.28, ptr noundef %60, ptr noundef %65)
  br i1 %66, label %68, label %67

67:                                               ; preds = %43
  store i1 false, ptr %4, align 1
  store i32 1, ptr %14, align 4
  br label %155

68:                                               ; preds = %43
  %69 = load ptr, ptr %5, align 8
  %70 = getelementptr inbounds nuw %struct.GL_ShaderContext, ptr %69, i32 0, i32 4
  %71 = load ptr, ptr %70, align 8
  %72 = call i32 %71(i32 noundef 35632)
  %73 = load ptr, ptr %7, align 8
  %74 = getelementptr inbounds nuw %struct.GL_ShaderData, ptr %73, i32 0, i32 2
  store i32 %72, ptr %74, align 4
  %75 = load ptr, ptr %5, align 8
  %76 = load ptr, ptr %7, align 8
  %77 = getelementptr inbounds nuw %struct.GL_ShaderData, ptr %76, i32 0, i32 2
  %78 = load i32, ptr %77, align 4
  %79 = load ptr, ptr %11, align 8
  %80 = load ptr, ptr %10, align 8
  %81 = load i32, ptr %6, align 4
  %82 = sext i32 %81 to i64
  %83 = getelementptr inbounds [11 x %struct.anon], ptr @shader_source, i64 0, i64 %82
  %84 = getelementptr inbounds nuw %struct.anon, ptr %83, i32 0, i32 1
  %85 = load ptr, ptr %84, align 8
  %86 = call zeroext i1 @CompileShader(ptr noundef %75, i32 noundef %78, ptr noundef %79, ptr noundef %80, ptr noundef %85)
  br i1 %86, label %88, label %87

87:                                               ; preds = %68
  store i1 false, ptr %4, align 1
  store i32 1, ptr %14, align 4
  br label %155

88:                                               ; preds = %68
  %89 = load ptr, ptr %5, align 8
  %90 = getelementptr inbounds nuw %struct.GL_ShaderContext, ptr %89, i32 0, i32 1
  %91 = load ptr, ptr %90, align 8
  %92 = load ptr, ptr %7, align 8
  %93 = getelementptr inbounds nuw %struct.GL_ShaderData, ptr %92, i32 0, i32 0
  %94 = load i32, ptr %93, align 4
  %95 = load ptr, ptr %7, align 8
  %96 = getelementptr inbounds nuw %struct.GL_ShaderData, ptr %95, i32 0, i32 1
  %97 = load i32, ptr %96, align 4
  call void %91(i32 noundef %94, i32 noundef %97)
  %98 = load ptr, ptr %5, align 8
  %99 = getelementptr inbounds nuw %struct.GL_ShaderContext, ptr %98, i32 0, i32 1
  %100 = load ptr, ptr %99, align 8
  %101 = load ptr, ptr %7, align 8
  %102 = getelementptr inbounds nuw %struct.GL_ShaderData, ptr %101, i32 0, i32 0
  %103 = load i32, ptr %102, align 4
  %104 = load ptr, ptr %7, align 8
  %105 = getelementptr inbounds nuw %struct.GL_ShaderData, ptr %104, i32 0, i32 2
  %106 = load i32, ptr %105, align 4
  call void %100(i32 noundef %103, i32 noundef %106)
  %107 = load ptr, ptr %5, align 8
  %108 = getelementptr inbounds nuw %struct.GL_ShaderContext, ptr %107, i32 0, i32 9
  %109 = load ptr, ptr %108, align 8
  %110 = load ptr, ptr %7, align 8
  %111 = getelementptr inbounds nuw %struct.GL_ShaderData, ptr %110, i32 0, i32 0
  %112 = load i32, ptr %111, align 4
  call void %109(i32 noundef %112)
  %113 = load ptr, ptr %5, align 8
  %114 = getelementptr inbounds nuw %struct.GL_ShaderContext, ptr %113, i32 0, i32 15
  %115 = load ptr, ptr %114, align 8
  %116 = load ptr, ptr %7, align 8
  %117 = getelementptr inbounds nuw %struct.GL_ShaderData, ptr %116, i32 0, i32 0
  %118 = load i32, ptr %117, align 4
  call void %115(i32 noundef %118)
  store i32 0, ptr %12, align 4
  br label %119

119:                                              ; preds = %143, %88
  %120 = load i32, ptr %12, align 4
  %121 = icmp slt i32 %120, 4
  br i1 %121, label %122, label %146

122:                                              ; preds = %119
  call void @llvm.lifetime.start.p0(i64 10, ptr %15) #4
  %123 = getelementptr inbounds [10 x i8], ptr %15, i64 0, i64 0
  %124 = load i32, ptr %12, align 4
  %125 = call i32 (ptr, i64, ptr, ...) @SDL_snprintf_REAL(ptr noundef %123, i64 noundef 10, ptr noundef @.str.31, i32 noundef %124)
  %126 = load ptr, ptr %5, align 8
  %127 = getelementptr inbounds nuw %struct.GL_ShaderContext, ptr %126, i32 0, i32 8
  %128 = load ptr, ptr %127, align 8
  %129 = load ptr, ptr %7, align 8
  %130 = getelementptr inbounds nuw %struct.GL_ShaderData, ptr %129, i32 0, i32 0
  %131 = load i32, ptr %130, align 4
  %132 = getelementptr inbounds [10 x i8], ptr %15, i64 0, i64 0
  %133 = call i32 %128(i32 noundef %131, ptr noundef %132)
  store i32 %133, ptr %13, align 4
  %134 = load i32, ptr %13, align 4
  %135 = icmp sge i32 %134, 0
  br i1 %135, label %136, label %142

136:                                              ; preds = %122
  %137 = load ptr, ptr %5, align 8
  %138 = getelementptr inbounds nuw %struct.GL_ShaderContext, ptr %137, i32 0, i32 11
  %139 = load ptr, ptr %138, align 8
  %140 = load i32, ptr %13, align 4
  %141 = load i32, ptr %12, align 4
  call void %139(i32 noundef %140, i32 noundef %141)
  br label %142

142:                                              ; preds = %136, %122
  call void @llvm.lifetime.end.p0(i64 10, ptr %15) #4
  br label %143

143:                                              ; preds = %142
  %144 = load i32, ptr %12, align 4
  %145 = add nsw i32 %144, 1
  store i32 %145, ptr %12, align 4
  br label %119, !llvm.loop !7

146:                                              ; preds = %119
  %147 = load ptr, ptr %5, align 8
  %148 = getelementptr inbounds nuw %struct.GL_ShaderContext, ptr %147, i32 0, i32 15
  %149 = load ptr, ptr %148, align 8
  call void %149(i32 noundef 0)
  %150 = load ptr, ptr %5, align 8
  %151 = getelementptr inbounds nuw %struct.GL_ShaderContext, ptr %150, i32 0, i32 0
  %152 = load ptr, ptr %151, align 8
  %153 = call i32 %152()
  %154 = icmp eq i32 %153, 0
  store i1 %154, ptr %4, align 1
  store i32 1, ptr %14, align 4
  br label %155

155:                                              ; preds = %146, %87, %67, %18
  call void @llvm.lifetime.end.p0(i64 4, ptr %13) #4
  call void @llvm.lifetime.end.p0(i64 4, ptr %12) #4
  call void @llvm.lifetime.end.p0(i64 8, ptr %11) #4
  call void @llvm.lifetime.end.p0(i64 8, ptr %10) #4
  call void @llvm.lifetime.end.p0(i64 8, ptr %9) #4
  call void @llvm.lifetime.end.p0(i64 4, ptr %8) #4
  %156 = load i1, ptr %4, align 1
  ret i1 %156
}