; Function Attrs: nounwind uwtable
define internal fastcc zeroext i1 @CompileShaderProgram(ptr noundef nonnull readonly captures(none) %0, i32 noundef range(i32 -2147483648, 11) %1, ptr noundef nonnull captures(none) %2) unnamed_addr #0 {
  %4 = alloca [10 x i8], align 1
  %5 = icmp eq i32 %1, 0
  br i1 %5, label %63, label %6

6:                                                ; preds = %3
  %7 = load ptr, ptr %0, align 8
  %8 = tail call i32 %7() #5
  %9 = getelementptr inbounds nuw i8, ptr %0, i64 128
  %10 = load i8, ptr %9, align 8, !range !5, !noundef !6
  %11 = sext i32 %1 to i64
  %12 = getelementptr inbounds [11 x %struct.anon], ptr @shader_source, i64 0, i64 %11
  %13 = getelementptr inbounds nuw i8, ptr %12, i64 16
  %14 = load ptr, ptr %13, align 8
  %15 = getelementptr inbounds nuw i8, ptr %0, i64 24
  %16 = load ptr, ptr %15, align 8
  %17 = tail call i32 %16() #5
  store i32 %17, ptr %2, align 4
  %18 = getelementptr inbounds nuw i8, ptr %0, i64 32
  %19 = load ptr, ptr %18, align 8
  %20 = tail call i32 %19(i32 noundef 35633) #5
  %21 = getelementptr inbounds nuw i8, ptr %2, i64 4
  store i32 %20, ptr %21, align 4
  %22 = load ptr, ptr %12, align 8
  %23 = tail call fastcc zeroext i1 @CompileShader(ptr noundef %0, i32 noundef %20, ptr noundef nonnull @.str.28, ptr noundef nonnull @.str.28, ptr noundef %22)
  br i1 %23, label %24, label %63

24:                                               ; preds = %6
  %.not = icmp eq ptr %14, null
  %.042 = select i1 %.not, ptr @.str.28, ptr %14
  %25 = trunc nuw i8 %10 to i1
  %.str.29..str.30 = select i1 %25, ptr @.str.29, ptr @.str.30
  %26 = load ptr, ptr %18, align 8
  %27 = tail call i32 %26(i32 noundef 35632) #5
  %28 = getelementptr inbounds nuw i8, ptr %2, i64 8
  store i32 %27, ptr %28, align 4
  %29 = getelementptr inbounds nuw i8, ptr %12, i64 8
  %30 = load ptr, ptr %29, align 8
  %31 = tail call fastcc zeroext i1 @CompileShader(ptr noundef %0, i32 noundef %27, ptr noundef nonnull %.042, ptr noundef nonnull %.str.29..str.30, ptr noundef %30)
  br i1 %31, label %32, label %63

32:                                               ; preds = %24
  %33 = getelementptr inbounds nuw i8, ptr %0, i64 8
  %34 = load ptr, ptr %33, align 8
  %35 = load i32, ptr %2, align 4
  %36 = load i32, ptr %21, align 4
  tail call void %34(i32 noundef %35, i32 noundef %36) #5
  %37 = load ptr, ptr %33, align 8
  %38 = load i32, ptr %2, align 4
  %39 = load i32, ptr %28, align 4
  tail call void %37(i32 noundef %38, i32 noundef %39) #5
  %40 = getelementptr inbounds nuw i8, ptr %0, i64 72
  %41 = load ptr, ptr %40, align 8
  %42 = load i32, ptr %2, align 4
  tail call void %41(i32 noundef %42) #5
  %43 = getelementptr inbounds nuw i8, ptr %0, i64 120
  %44 = load ptr, ptr %43, align 8
  %45 = load i32, ptr %2, align 4
  tail call void %44(i32 noundef %45) #5
  %46 = getelementptr inbounds nuw i8, ptr %0, i64 64
  %47 = getelementptr inbounds nuw i8, ptr %0, i64 88
  br label %48

48:                                               ; preds = %32, %56
  %.04147 = phi i32 [ 0, %32 ], [ %57, %56 ]
  call void @llvm.lifetime.start.p0(i64 10, ptr nonnull %4) #5
  %49 = call i32 (ptr, i64, ptr, ...) @SDL_snprintf_REAL(ptr noundef nonnull %4, i64 noundef 10, ptr noundef nonnull @.str.31, i32 noundef %.04147) #5
  %50 = load ptr, ptr %46, align 8
  %51 = load i32, ptr %2, align 4
  %52 = call i32 %50(i32 noundef %51, ptr noundef nonnull %4) #5
  %53 = icmp sgt i32 %52, -1
  br i1 %53, label %54, label %56

54:                                               ; preds = %48
  %55 = load ptr, ptr %47, align 8
  call void %55(i32 noundef %52, i32 noundef %.04147) #5
  br label %56

56:                                               ; preds = %54, %48
  call void @llvm.lifetime.end.p0(i64 10, ptr nonnull %4) #5
  %57 = add nuw nsw i32 %.04147, 1
  %exitcond.not = icmp eq i32 %57, 4
  br i1 %exitcond.not, label %58, label %48, !llvm.loop !7

58:                                               ; preds = %56
  %59 = load ptr, ptr %43, align 8
  call void %59(i32 noundef 0) #5
  %60 = load ptr, ptr %0, align 8
  %61 = call i32 %60() #5
  %62 = icmp eq i32 %61, 0
  br label %63

63:                                               ; preds = %24, %6, %3, %58
  %.0 = phi i1 [ %62, %58 ], [ true, %3 ], [ false, %6 ], [ false, %24 ]
  ret i1 %.0
}